target datalayout = "e-m:e-p270:32:32-p271:32:32-p272:64:64-i64:64-i128:128-f80:128-n8:16:32:64-S128"
target triple = "x86_64-pc-linux-gnu"

%"class.cv::Rect_" = type { i32, i32, i32, i32 }
%"class.cv::Size_" = type { i32, i32 }
%"class.cv::Point_.52" = type { i32, i32 }
%"struct.cv::detail::ProjectorBase" = type { float, [9 x float], [9 x float], [9 x float], [9 x float], [3 x float] }
%"class.cv::detail::RotationWarperBase" = type { %"class.cv::detail::RotationWarper", %"struct.cv::detail::PlaneProjector" }
%"class.cv::detail::RotationWarper" = type { ptr }
%"struct.cv::detail::PlaneProjector" = type { %"struct.cv::detail::ProjectorBase" }

; Function Attrs: inlinehint mustprogress nounwind uwtable
define linkonce_odr noundef nonnull align 4 dereferenceable(4) ptr @_ZSt3maxIiERKT_S2_S2_(ptr noundef nonnull align 4 dereferenceable(4) %0, ptr noundef nonnull align 4 dereferenceable(4) %1) #5 comdat {
  %3 = alloca ptr, align 8
  %4 = alloca ptr, align 8
  %5 = alloca ptr, align 8
  store ptr %0, ptr %4, align 8, !tbaa !182
  store ptr %1, ptr %5, align 8, !tbaa !182
  %6 = load ptr, ptr %4, align 8, !tbaa !182
  %7 = load i32, ptr %6, align 4, !tbaa !67
  %8 = load ptr, ptr %5, align 8, !tbaa !182
  %9 = load i32, ptr %8, align 4, !tbaa !67
  %10 = icmp slt i32 %7, %9
  br i1 %10, label %11, label %13

11:                                               ; preds = %2
  %12 = load ptr, ptr %5, align 8, !tbaa !182
  store ptr %12, ptr %3, align 8
  br label %15

13:                                               ; preds = %2
  %14 = load ptr, ptr %4, align 8, !tbaa !182
  store ptr %14, ptr %3, align 8
  br label %15

15:                                               ; preds = %13, %11
  %16 = load ptr, ptr %3, align 8
  ret ptr %16
}

; Function Attrs: inlinehint mustprogress nounwind uwtable
define linkonce_odr noundef nonnull align 4 dereferenceable(4) ptr @_ZSt3minIiERKT_S2_S2_(ptr noundef nonnull align 4 dereferenceable(4) %0, ptr noundef nonnull align 4 dereferenceable(4) %1) #5 comdat {
  %3 = alloca ptr, align 8
  %4 = alloca ptr, align 8
  %5 = alloca ptr, align 8
  store ptr %0, ptr %4, align 8, !tbaa !182
  store ptr %1, ptr %5, align 8, !tbaa !182
  %6 = load ptr, ptr %5, align 8, !tbaa !182
  %7 = load i32, ptr %6, align 4, !tbaa !67
  %8 = load ptr, ptr %4, align 8, !tbaa !182
  %9 = load i32, ptr %8, align 4, !tbaa !67
  %10 = icmp slt i32 %7, %9
  br i1 %10, label %11, label %13

11:                                               ; preds = %2
  %12 = load ptr, ptr %5, align 8, !tbaa !182
  store ptr %12, ptr %3, align 8
  br label %15

13:                                               ; preds = %2
  %14 = load ptr, ptr %4, align 8, !tbaa !182
  store ptr %14, ptr %3, align 8
  br label %15

15:                                               ; preds = %13, %11
  %16 = load ptr, ptr %3, align 8
  ret ptr %16
}

; Function Attrs: inlinehint mustprogress uwtable
define linkonce_odr hidden void @_ZN2cv5Rect_IiEC2ERKNS_6Point_IiEES5_(ptr noundef nonnull align 4 dereferenceable(16) %0, ptr noundef nonnull align 4 dereferenceable(8) %1, ptr noundef nonnull align 4 dereferenceable(8) %2) unnamed_addr #7 comdat align 2 {
  %4 = alloca ptr, align 8
  %5 = alloca ptr, align 8
  %6 = alloca ptr, align 8
  store ptr %0, ptr %4, align 8, !tbaa !116
  store ptr %1, ptr %5, align 8, !tbaa !114
  store ptr %2, ptr %6, align 8, !tbaa !114
  %7 = load ptr, ptr %4, align 8
  %8 = load ptr, ptr %5, align 8, !tbaa !114
  %9 = getelementptr inbounds nuw %"class.cv::Point_.52", ptr %8, i32 0, i32 0
  %10 = load ptr, ptr %6, align 8, !tbaa !114
  %11 = getelementptr inbounds nuw %"class.cv::Point_.52", ptr %10, i32 0, i32 0
  %12 = call noundef nonnull align 4 dereferenceable(4) ptr @_ZSt3minIiERKT_S2_S2_(ptr noundef nonnull align 4 dereferenceable(4) %9, ptr noundef nonnull align 4 dereferenceable(4) %11)
  %13 = load i32, ptr %12, align 4, !tbaa !67
  %14 = getelementptr inbounds nuw %"class.cv::Rect_", ptr %7, i32 0, i32 0
  store i32 %13, ptr %14, align 4, !tbaa !118
  %15 = load ptr, ptr %5, align 8, !tbaa !114
  %16 = getelementptr inbounds nuw %"class.cv::Point_.52", ptr %15, i32 0, i32 1
  %17 = load ptr, ptr %6, align 8, !tbaa !114
  %18 = getelementptr inbounds nuw %"class.cv::Point_.52", ptr %17, i32 0, i32 1
  %19 = call noundef nonnull align 4 dereferenceable(4) ptr @_ZSt3minIiERKT_S2_S2_(ptr noundef nonnull align 4 dereferenceable(4) %16, ptr noundef nonnull align 4 dereferenceable(4) %18)
  %20 = load i32, ptr %19, align 4, !tbaa !67
  %21 = getelementptr inbounds nuw %"class.cv::Rect_", ptr %7, i32 0, i32 1
  store i32 %20, ptr %21, align 4, !tbaa !120
  %22 = load ptr, ptr %5, align 8, !tbaa !114
  %23 = getelementptr inbounds nuw %"class.cv::Point_.52", ptr %22, i32 0, i32 0
  %24 = load ptr, ptr %6, align 8, !tbaa !114
  %25 = getelementptr inbounds nuw %"class.cv::Point_.52", ptr %24, i32 0, i32 0
  %26 = call noundef nonnull align 4 dereferenceable(4) ptr @_ZSt3maxIiERKT_S2_S2_(ptr noundef nonnull align 4 dereferenceable(4) %23, ptr noundef nonnull align 4 dereferenceable(4) %25)
  %27 = load i32, ptr %26, align 4, !tbaa !67
  %28 = getelementptr inbounds nuw %"class.cv::Rect_", ptr %7, i32 0, i32 0
  %29 = load i32, ptr %28, align 4, !tbaa !118
  %30 = sub nsw i32 %27, %29
  %31 = getelementptr inbounds nuw %"class.cv::Rect_", ptr %7, i32 0, i32 2
  store i32 %30, ptr %31, align 4, !tbaa !121
  %32 = load ptr, ptr %5, align 8, !tbaa !114
  %33 = getelementptr inbounds nuw %"class.cv::Point_.52", ptr %32, i32 0, i32 1
  %34 = load ptr, ptr %6, align 8, !tbaa !114
  %35 = getelementptr inbounds nuw %"class.cv::Point_.52", ptr %34, i32 0, i32 1
  %36 = call noundef nonnull align 4 dereferenceable(4) ptr @_ZSt3maxIiERKT_S2_S2_(ptr noundef nonnull align 4 dereferenceable(4) %33, ptr noundef nonnull align 4 dereferenceable(4) %35)
  %37 = load i32, ptr %36, align 4, !tbaa !67
  %38 = getelementptr inbounds nuw %"class.cv::Rect_", ptr %7, i32 0, i32 1
  %39 = load i32, ptr %38, align 4, !tbaa !120
  %40 = sub nsw i32 %37, %39
  %41 = getelementptr inbounds nuw %"class.cv::Rect_", ptr %7, i32 0, i32 3
  store i32 %40, ptr %41, align 4, !tbaa !122
  ret void
}

; Function Attrs: inlinehint mustprogress nounwind uwtable
define linkonce_odr hidden void @_ZN2cv6Point_IiEC2Eii(ptr noundef nonnull align 4 dereferenceable(8) %0, i32 noundef %1, i32 noundef %2) unnamed_addr #5 comdat align 2 {
  %4 = alloca ptr, align 8
  %5 = alloca i32, align 4
  %6 = alloca i32, align 4
  store ptr %0, ptr %4, align 8, !tbaa !114
  store i32 %1, ptr %5, align 4, !tbaa !67
  store i32 %2, ptr %6, align 4, !tbaa !67
  %7 = load ptr, ptr %4, align 8
  %8 = getelementptr inbounds nuw %"class.cv::Point_.52", ptr %7, i32 0, i32 0
  %9 = load i32, ptr %5, align 4, !tbaa !67
  store i32 %9, ptr %8, align 4, !tbaa !108
  %10 = getelementptr inbounds nuw %"class.cv::Point_.52", ptr %7, i32 0, i32 1
  %11 = load i32, ptr %6, align 4, !tbaa !67
  store i32 %11, ptr %10, align 4, !tbaa !110
  ret void
}

; Function Attrs: inlinehint mustprogress nounwind uwtable
define linkonce_odr hidden void @_ZN2cv6Point_IiEC2Ev(ptr noundef nonnull align 4 dereferenceable(8) %0) unnamed_addr #5 comdat align 2 {
  %2 = alloca ptr, align 8
  store ptr %0, ptr %2, align 8, !tbaa !114
  %3 = load ptr, ptr %2, align 8
  %4 = getelementptr inbounds nuw %"class.cv::Point_.52", ptr %3, i32 0, i32 0
  store i32 0, ptr %4, align 4, !tbaa !108
  %5 = getelementptr inbounds nuw %"class.cv::Point_.52", ptr %3, i32 0, i32 1
  store i32 0, ptr %5, align 4, !tbaa !110
  ret void
}

; Function Attrs: mustprogress uwtable
define { i64, i64 } @_ZN2cv6detail11PlaneWarper7warpRoiENS_5Size_IiEERKNS_11_InputArrayES6_S6_(ptr noundef nonnull align 8 dereferenceable(168) %0, i64 %1, ptr noundef nonnull align 8 dereferenceable(24) %2, ptr noundef nonnull align 8 dereferenceable(24) %3, ptr noundef nonnull align 8 dereferenceable(24) %4) #4 align 2 {
  %6 = alloca %"class.cv::Rect_", align 4
  %7 = alloca %"class.cv::Size_", align 4
  %8 = alloca ptr, align 8
  %9 = alloca ptr, align 8
  %10 = alloca ptr, align 8
  %11 = alloca ptr, align 8
  %12 = alloca %"class.cv::Point_.52", align 4
  %13 = alloca %"class.cv::Point_.52", align 4
  %14 = alloca %"class.cv::Size_", align 4
  %15 = alloca %"class.cv::Point_.52", align 4
  store i64 %1, ptr %7, align 4
  store ptr %0, ptr %8, align 8, !tbaa !99
  store ptr %2, ptr %9, align 8, !tbaa !59
  store ptr %3, ptr %10, align 8, !tbaa !59
  store ptr %4, ptr %11, align 8, !tbaa !59
  %16 = load ptr, ptr %8, align 8
  %17 = getelementptr inbounds nuw %"class.cv::detail::RotationWarperBase", ptr %16, i32 0, i32 1
  %18 = load ptr, ptr %9, align 8, !tbaa !59
  %19 = load ptr, ptr %10, align 8, !tbaa !59
  %20 = load ptr, ptr %11, align 8, !tbaa !59
  call void @_ZN2cv6detail13ProjectorBase15setCameraParamsERKNS_11_InputArrayES4_S4_(ptr noundef nonnull align 4 dereferenceable(160) %17, ptr noundef nonnull align 8 dereferenceable(24) %18, ptr noundef nonnull align 8 dereferenceable(24) %19, ptr noundef nonnull align 8 dereferenceable(24) %20)
  call void @llvm.lifetime.start.p0(i64 8, ptr %12) #3
  call void @_ZN2cv6Point_IiEC2Ev(ptr noundef nonnull align 4 dereferenceable(8) %12)
  call void @llvm.lifetime.start.p0(i64 8, ptr %13) #3
  call void @_ZN2cv6Point_IiEC2Ev(ptr noundef nonnull align 4 dereferenceable(8) %13)
  call void @llvm.memcpy.p0.p0.i64(ptr align 4 %14, ptr align 4 %7, i64 8, i1 false), !tbaa.struct !66
  %21 = load i64, ptr %14, align 4
  %22 = load ptr, ptr %16, align 8, !tbaa !12
  %23 = getelementptr inbounds ptr, ptr %22, i64 10
  %24 = load ptr, ptr %23, align 8
  call void %24(ptr noundef nonnull align 8 dereferenceable(168) %16, i64 %21, ptr noundef nonnull align 4 dereferenceable(8) %12, ptr noundef nonnull align 4 dereferenceable(8) %13)
  call void @llvm.lifetime.start.p0(i64 8, ptr %15) #3
  %25 = getelementptr inbounds nuw %"class.cv::Point_.52", ptr %13, i32 0, i32 0
  %26 = load i32, ptr %25, align 4, !tbaa !108
  %27 = add nsw i32 %26, 1
  %28 = getelementptr inbounds nuw %"class.cv::Point_.52", ptr %13, i32 0, i32 1
  %29 = load i32, ptr %28, align 4, !tbaa !110
  %30 = add nsw i32 %29, 1
  call void @_ZN2cv6Point_IiEC2Eii(ptr noundef nonnull align 4 dereferenceable(8) %15, i32 noundef %27, i32 noundef %30)
  call void @_ZN2cv5Rect_IiEC2ERKNS_6Point_IiEES5_(ptr noundef nonnull align 4 dereferenceable(16) %6, ptr noundef nonnull align 4 dereferenceable(8) %12, ptr noundef nonnull align 4 dereferenceable(8) %15)
  call void @llvm.lifetime.end.p0(i64 8, ptr %15) #3
  call void @llvm.lifetime.end.p0(i64 8, ptr %13) #3
  call void @llvm.lifetime.end.p0(i64 8, ptr %12) #3
  %31 = load { i64, i64 }, ptr %6, align 4
  ret { i64, i64 } %31
}