; Function Attrs: mustprogress uwtable
define { i64, i64 } @_ZN2cv6detail11PlaneWarper7warpRoiENS_5Size_IiEERKNS_11_InputArrayES6_S6_(ptr noundef nonnull align 8 dereferenceable(168) %0, i64 %1, ptr noundef nonnull align 8 dereferenceable(24) %2, ptr noundef nonnull align 8 dereferenceable(24) %3, ptr noundef nonnull align 8 dereferenceable(24) %4) local_unnamed_addr #3 align 2 {
  %6 = alloca %"class.cv::Point_.52", align 4
  %7 = alloca %"class.cv::Point_.52", align 4
  %8 = getelementptr inbounds nuw i8, ptr %0, i64 8
  tail call void @_ZN2cv6detail13ProjectorBase15setCameraParamsERKNS_11_InputArrayES4_S4_(ptr noundef nonnull align 4 dereferenceable(160) %8, ptr noundef nonnull align 8 dereferenceable(24) %2, ptr noundef nonnull align 8 dereferenceable(24) %3, ptr noundef nonnull align 8 dereferenceable(24) %4)
  call void @llvm.lifetime.start.p0(i64 8, ptr nonnull %6) #22
  store i32 0, ptr %6, align 4, !tbaa !206
  %9 = getelementptr inbounds nuw i8, ptr %6, i64 4
  store i32 0, ptr %9, align 4, !tbaa !208
  call void @llvm.lifetime.start.p0(i64 8, ptr nonnull %7) #22
  store i32 0, ptr %7, align 4, !tbaa !206
  %10 = getelementptr inbounds nuw i8, ptr %7, i64 4
  store i32 0, ptr %10, align 4, !tbaa !208
  %11 = load ptr, ptr %0, align 8, !tbaa !14
  %12 = getelementptr inbounds nuw i8, ptr %11, i64 80
  %13 = load ptr, ptr %12, align 8
  call void %13(ptr noundef nonnull align 8 dereferenceable(168) %0, i64 %1, ptr noundef nonnull align 4 dereferenceable(8) %6, ptr noundef nonnull align 4 dereferenceable(8) %7)
  %14 = load i32, ptr %7, align 4, !tbaa !206
  %15 = add nsw i32 %14, 1
  %16 = load i32, ptr %10, align 4, !tbaa !208
  %17 = add nsw i32 %16, 1
  %18 = load i32, ptr %6, align 4, !tbaa !23
  %19 = call i32 @llvm.smin.i32(i32 %15, i32 %18)
  %20 = load i32, ptr %9, align 4, !tbaa !23
  %21 = call i32 @llvm.smin.i32(i32 %17, i32 %20)
  %22 = call i32 @llvm.smax.i32(i32 %18, i32 %15)
  %23 = sub nsw i32 %22, %19
  %24 = call i32 @llvm.smax.i32(i32 %20, i32 %17)
  %25 = sub nsw i32 %24, %21
  call void @llvm.lifetime.end.p0(i64 8, ptr nonnull %7) #22
  call void @llvm.lifetime.end.p0(i64 8, ptr nonnull %6) #22
  %.sroa.2.0.insert.ext = zext i32 %21 to i64
  %.sroa.2.0.insert.shift = shl nuw i64 %.sroa.2.0.insert.ext, 32
  %.sroa.07.0.insert.ext = zext i32 %19 to i64
  %.sroa.07.0.insert.insert = or disjoint i64 %.sroa.2.0.insert.shift, %.sroa.07.0.insert.ext
  %.fca.0.insert = insertvalue { i64, i64 } poison, i64 %.sroa.07.0.insert.insert, 0
  %.sroa.58.8.insert.ext = zext i32 %25 to i64
  %.sroa.58.8.insert.shift = shl nuw i64 %.sroa.58.8.insert.ext, 32
  %.sroa.3.8.insert.ext = zext i32 %23 to i64
  %.sroa.3.8.insert.insert = or disjoint i64 %.sroa.58.8.insert.shift, %.sroa.3.8.insert.ext
  %.fca.1.insert = insertvalue { i64, i64 } %.fca.0.insert, i64 %.sroa.3.8.insert.insert, 1
  ret { i64, i64 } %.fca.1.insert
}